target datalayout = "e-m:e-p270:32:32-p271:32:32-p272:64:64-i64:64-i128:128-f80:128-n8:16:32:64-S128"
target triple = "x86_64-pc-linux-gnu"

%"class.cv::Size_" = type { i32, i32 }
%"class.testing::internal::ParamGenerator" = type { %"class.testing::internal::linked_ptr" }
%"class.testing::internal::linked_ptr" = type { ptr, %"class.testing::internal::linked_ptr_internal" }
%"class.testing::internal::linked_ptr_internal" = type { ptr }
%"class.testing::internal::CartesianProductHolder5" = type { %"class.testing::internal::ValueArray2", %"class.testing::internal::ValueArray7", %"class.testing::internal::ValueArray7", %"class.testing::internal::ValueArray2.35", %"class.testing::internal::ValueArray2.36" }
%"class.testing::internal::ValueArray2" = type { %"class.cv::Size_", %"class.cv::Size_" }
%"class.testing::internal::ValueArray7" = type { i32, i32, i32, i32, i32, i32, i32 }
%"class.testing::internal::ValueArray2.35" = type { i32, i32 }
%"class.testing::internal::ValueArray2.36" = type { double, double }

@_ZN4perfL5szVGAE = internal global %"class.cv::Size_" zeroinitializer, align 4
@_ZN4perfL7sz1080pE = internal global %"class.cv::Size_" zeroinitializer, align 4

; Function Attrs: mustprogress nounwind uwtable
define linkonce_odr hidden void @_ZN7testing8internal11ValueArray2IddEC2ERKS2_(ptr noundef nonnull align 8 dereferenceable(16) %0, ptr noundef nonnull align 8 dereferenceable(16) %1) unnamed_addr #9 comdat align 2 {
  %3 = alloca ptr, align 8
  %4 = alloca ptr, align 8
  store ptr %0, ptr %3, align 8, !tbaa !219
  store ptr %1, ptr %4, align 8, !tbaa !219
  %5 = load ptr, ptr %3, align 8
  %6 = getelementptr inbounds nuw %"class.testing::internal::ValueArray2.36", ptr %5, i32 0, i32 0
  %7 = load ptr, ptr %4, align 8, !tbaa !219
  %8 = getelementptr inbounds nuw %"class.testing::internal::ValueArray2.36", ptr %7, i32 0, i32 0
  %9 = load double, ptr %8, align 8, !tbaa !234
  store double %9, ptr %6, align 8, !tbaa !234
  %10 = getelementptr inbounds nuw %"class.testing::internal::ValueArray2.36", ptr %5, i32 0, i32 1
  %11 = load ptr, ptr %4, align 8, !tbaa !219
  %12 = getelementptr inbounds nuw %"class.testing::internal::ValueArray2.36", ptr %11, i32 0, i32 1
  %13 = load double, ptr %12, align 8, !tbaa !236
  store double %13, ptr %10, align 8, !tbaa !236
  ret void
}

; Function Attrs: mustprogress nounwind uwtable
define linkonce_odr hidden void @_ZN7testing8internal11ValueArray2IiiEC2ERKS2_(ptr noundef nonnull align 4 dereferenceable(8) %0, ptr noundef nonnull align 4 dereferenceable(8) %1) unnamed_addr #9 comdat align 2 {
  %3 = alloca ptr, align 8
  %4 = alloca ptr, align 8
  store ptr %0, ptr %3, align 8, !tbaa !217
  store ptr %1, ptr %4, align 8, !tbaa !217
  %5 = load ptr, ptr %3, align 8
  %6 = getelementptr inbounds nuw %"class.testing::internal::ValueArray2.35", ptr %5, i32 0, i32 0
  %7 = load ptr, ptr %4, align 8, !tbaa !217
  %8 = getelementptr inbounds nuw %"class.testing::internal::ValueArray2.35", ptr %7, i32 0, i32 0
  %9 = load i32, ptr %8, align 4, !tbaa !231
  store i32 %9, ptr %6, align 4, !tbaa !231
  %10 = getelementptr inbounds nuw %"class.testing::internal::ValueArray2.35", ptr %5, i32 0, i32 1
  %11 = load ptr, ptr %4, align 8, !tbaa !217
  %12 = getelementptr inbounds nuw %"class.testing::internal::ValueArray2.35", ptr %11, i32 0, i32 1
  %13 = load i32, ptr %12, align 4, !tbaa !233
  store i32 %13, ptr %10, align 4, !tbaa !233
  ret void
}

; Function Attrs: mustprogress nounwind uwtable
define linkonce_odr hidden void @_ZN7testing8internal11ValueArray7IiiiiiiiEC2ERKS2_(ptr noundef nonnull align 4 dereferenceable(28) %0, ptr noundef nonnull align 4 dereferenceable(28) %1) unnamed_addr #9 comdat align 2 {
  %3 = alloca ptr, align 8
  %4 = alloca ptr, align 8
  store ptr %0, ptr %3, align 8, !tbaa !215
  store ptr %1, ptr %4, align 8, !tbaa !215
  %5 = load ptr, ptr %3, align 8
  %6 = getelementptr inbounds nuw %"class.testing::internal::ValueArray7", ptr %5, i32 0, i32 0
  %7 = load ptr, ptr %4, align 8, !tbaa !215
  %8 = getelementptr inbounds nuw %"class.testing::internal::ValueArray7", ptr %7, i32 0, i32 0
  %9 = load i32, ptr %8, align 4, !tbaa !223
  store i32 %9, ptr %6, align 4, !tbaa !223
  %10 = getelementptr inbounds nuw %"class.testing::internal::ValueArray7", ptr %5, i32 0, i32 1
  %11 = load ptr, ptr %4, align 8, !tbaa !215
  %12 = getelementptr inbounds nuw %"class.testing::internal::ValueArray7", ptr %11, i32 0, i32 1
  %13 = load i32, ptr %12, align 4, !tbaa !225
  store i32 %13, ptr %10, align 4, !tbaa !225
  %14 = getelementptr inbounds nuw %"class.testing::internal::ValueArray7", ptr %5, i32 0, i32 2
  %15 = load ptr, ptr %4, align 8, !tbaa !215
  %16 = getelementptr inbounds nuw %"class.testing::internal::ValueArray7", ptr %15, i32 0, i32 2
  %17 = load i32, ptr %16, align 4, !tbaa !226
  store i32 %17, ptr %14, align 4, !tbaa !226
  %18 = getelementptr inbounds nuw %"class.testing::internal::ValueArray7", ptr %5, i32 0, i32 3
  %19 = load ptr, ptr %4, align 8, !tbaa !215
  %20 = getelementptr inbounds nuw %"class.testing::internal::ValueArray7", ptr %19, i32 0, i32 3
  %21 = load i32, ptr %20, align 4, !tbaa !227
  store i32 %21, ptr %18, align 4, !tbaa !227
  %22 = getelementptr inbounds nuw %"class.testing::internal::ValueArray7", ptr %5, i32 0, i32 4
  %23 = load ptr, ptr %4, align 8, !tbaa !215
  %24 = getelementptr inbounds nuw %"class.testing::internal::ValueArray7", ptr %23, i32 0, i32 4
  %25 = load i32, ptr %24, align 4, !tbaa !228
  store i32 %25, ptr %22, align 4, !tbaa !228
  %26 = getelementptr inbounds nuw %"class.testing::internal::ValueArray7", ptr %5, i32 0, i32 5
  %27 = load ptr, ptr %4, align 8, !tbaa !215
  %28 = getelementptr inbounds nuw %"class.testing::internal::ValueArray7", ptr %27, i32 0, i32 5
  %29 = load i32, ptr %28, align 4, !tbaa !229
  store i32 %29, ptr %26, align 4, !tbaa !229
  %30 = getelementptr inbounds nuw %"class.testing::internal::ValueArray7", ptr %5, i32 0, i32 6
  %31 = load ptr, ptr %4, align 8, !tbaa !215
  %32 = getelementptr inbounds nuw %"class.testing::internal::ValueArray7", ptr %31, i32 0, i32 6
  %33 = load i32, ptr %32, align 4, !tbaa !230
  store i32 %33, ptr %30, align 4, !tbaa !230
  ret void
}

; Function Attrs: mustprogress nounwind uwtable
define linkonce_odr hidden void @_ZN7testing8internal11ValueArray2IN2cv5Size_IiEES4_EC2ERKS5_(ptr noundef nonnull align 4 dereferenceable(16) %0, ptr noundef nonnull align 4 dereferenceable(16) %1) unnamed_addr #9 comdat align 2 {
  %3 = alloca ptr, align 8
  %4 = alloca ptr, align 8
  store ptr %0, ptr %3, align 8, !tbaa !213
  store ptr %1, ptr %4, align 8, !tbaa !213
  %5 = load ptr, ptr %3, align 8
  %6 = getelementptr inbounds nuw %"class.testing::internal::ValueArray2", ptr %5, i32 0, i32 0
  %7 = load ptr, ptr %4, align 8, !tbaa !213
  %8 = getelementptr inbounds nuw %"class.testing::internal::ValueArray2", ptr %7, i32 0, i32 0
  call void @llvm.memcpy.p0.p0.i64(ptr align 4 %6, ptr align 4 %8, i64 8, i1 false), !tbaa.struct !73
  %9 = getelementptr inbounds nuw %"class.testing::internal::ValueArray2", ptr %5, i32 0, i32 1
  %10 = load ptr, ptr %4, align 8, !tbaa !213
  %11 = getelementptr inbounds nuw %"class.testing::internal::ValueArray2", ptr %10, i32 0, i32 1
  call void @llvm.memcpy.p0.p0.i64(ptr align 4 %9, ptr align 4 %11, i64 8, i1 false), !tbaa.struct !73
  ret void
}

; Function Attrs: mustprogress uwtable
define linkonce_odr hidden void @_ZN7testing8internal23CartesianProductHolder5INS0_11ValueArray2IN2cv5Size_IiEES5_EENS0_11ValueArray7IiiiiiiiEES8_NS2_IiiEENS2_IddEEEC2ERKS6_RKS8_SF_RKS9_RKSA_(ptr noundef nonnull align 8 dereferenceable(96) %0, ptr noundef nonnull align 4 dereferenceable(16) %1, ptr noundef nonnull align 4 dereferenceable(28) %2, ptr noundef nonnull align 4 dereferenceable(28) %3, ptr noundef nonnull align 4 dereferenceable(8) %4, ptr noundef nonnull align 8 dereferenceable(16) %5) unnamed_addr #6 comdat align 2 {
  %7 = alloca ptr, align 8
  %8 = alloca ptr, align 8
  %9 = alloca ptr, align 8
  %10 = alloca ptr, align 8
  %11 = alloca ptr, align 8
  %12 = alloca ptr, align 8
  store ptr %0, ptr %7, align 8, !tbaa !221
  store ptr %1, ptr %8, align 8, !tbaa !213
  store ptr %2, ptr %9, align 8, !tbaa !215
  store ptr %3, ptr %10, align 8, !tbaa !215
  store ptr %4, ptr %11, align 8, !tbaa !217
  store ptr %5, ptr %12, align 8, !tbaa !219
  %13 = load ptr, ptr %7, align 8
  %14 = getelementptr inbounds nuw %"class.testing::internal::CartesianProductHolder5", ptr %13, i32 0, i32 0
  %15 = load ptr, ptr %8, align 8, !tbaa !213
  call void @_ZN7testing8internal11ValueArray2IN2cv5Size_IiEES4_EC2ERKS5_(ptr noundef nonnull align 4 dereferenceable(16) %14, ptr noundef nonnull align 4 dereferenceable(16) %15)
  %16 = getelementptr inbounds nuw %"class.testing::internal::CartesianProductHolder5", ptr %13, i32 0, i32 1
  %17 = load ptr, ptr %9, align 8, !tbaa !215
  call void @_ZN7testing8internal11ValueArray7IiiiiiiiEC2ERKS2_(ptr noundef nonnull align 4 dereferenceable(28) %16, ptr noundef nonnull align 4 dereferenceable(28) %17)
  %18 = getelementptr inbounds nuw %"class.testing::internal::CartesianProductHolder5", ptr %13, i32 0, i32 2
  %19 = load ptr, ptr %10, align 8, !tbaa !215
  call void @_ZN7testing8internal11ValueArray7IiiiiiiiEC2ERKS2_(ptr noundef nonnull align 4 dereferenceable(28) %18, ptr noundef nonnull align 4 dereferenceable(28) %19)
  %20 = getelementptr inbounds nuw %"class.testing::internal::CartesianProductHolder5", ptr %13, i32 0, i32 3
  %21 = load ptr, ptr %11, align 8, !tbaa !217
  call void @_ZN7testing8internal11ValueArray2IiiEC2ERKS2_(ptr noundef nonnull align 4 dereferenceable(8) %20, ptr noundef nonnull align 4 dereferenceable(8) %21)
  %22 = getelementptr inbounds nuw %"class.testing::internal::CartesianProductHolder5", ptr %13, i32 0, i32 4
  %23 = load ptr, ptr %12, align 8, !tbaa !219
  call void @_ZN7testing8internal11ValueArray2IddEC2ERKS2_(ptr noundef nonnull align 8 dereferenceable(16) %22, ptr noundef nonnull align 8 dereferenceable(16) %23)
  ret void
}

; Function Attrs: mustprogress nounwind uwtable
define linkonce_odr hidden void @_ZN7testing8internal11ValueArray2IddEC2Edd(ptr noundef nonnull align 8 dereferenceable(16) %0, double noundef %1, double noundef %2) unnamed_addr #9 comdat align 2 {
  %4 = alloca ptr, align 8
  %5 = alloca double, align 8
  %6 = alloca double, align 8
  store ptr %0, ptr %4, align 8, !tbaa !219
  store double %1, ptr %5, align 8, !tbaa !80
  store double %2, ptr %6, align 8, !tbaa !80
  %7 = load ptr, ptr %4, align 8
  %8 = getelementptr inbounds nuw %"class.testing::internal::ValueArray2.36", ptr %7, i32 0, i32 0
  %9 = load double, ptr %5, align 8, !tbaa !80
  store double %9, ptr %8, align 8, !tbaa !234
  %10 = getelementptr inbounds nuw %"class.testing::internal::ValueArray2.36", ptr %7, i32 0, i32 1
  %11 = load double, ptr %6, align 8, !tbaa !80
  store double %11, ptr %10, align 8, !tbaa !236
  ret void
}

; Function Attrs: mustprogress nounwind uwtable
define linkonce_odr hidden void @_ZN7testing8internal11ValueArray2IiiEC2Eii(ptr noundef nonnull align 4 dereferenceable(8) %0, i32 noundef %1, i32 noundef %2) unnamed_addr #9 comdat align 2 {
  %4 = alloca ptr, align 8
  %5 = alloca i32, align 4
  %6 = alloca i32, align 4
  store ptr %0, ptr %4, align 8, !tbaa !217
  store i32 %1, ptr %5, align 4, !tbaa !9
  store i32 %2, ptr %6, align 4, !tbaa !9
  %7 = load ptr, ptr %4, align 8
  %8 = getelementptr inbounds nuw %"class.testing::internal::ValueArray2.35", ptr %7, i32 0, i32 0
  %9 = load i32, ptr %5, align 4, !tbaa !9
  store i32 %9, ptr %8, align 4, !tbaa !231
  %10 = getelementptr inbounds nuw %"class.testing::internal::ValueArray2.35", ptr %7, i32 0, i32 1
  %11 = load i32, ptr %6, align 4, !tbaa !9
  store i32 %11, ptr %10, align 4, !tbaa !233
  ret void
}

; Function Attrs: mustprogress nounwind uwtable
define linkonce_odr hidden void @_ZN7testing8internal11ValueArray7IiiiiiiiEC2Eiiiiiii(ptr noundef nonnull align 4 dereferenceable(28) %0, i32 noundef %1, i32 noundef %2, i32 noundef %3, i32 noundef %4, i32 noundef %5, i32 noundef %6, i32 noundef %7) unnamed_addr #9 comdat align 2 {
  %9 = alloca ptr, align 8
  %10 = alloca i32, align 4
  %11 = alloca i32, align 4
  %12 = alloca i32, align 4
  %13 = alloca i32, align 4
  %14 = alloca i32, align 4
  %15 = alloca i32, align 4
  %16 = alloca i32, align 4
  store ptr %0, ptr %9, align 8, !tbaa !215
  store i32 %1, ptr %10, align 4, !tbaa !9
  store i32 %2, ptr %11, align 4, !tbaa !9
  store i32 %3, ptr %12, align 4, !tbaa !9
  store i32 %4, ptr %13, align 4, !tbaa !9
  store i32 %5, ptr %14, align 4, !tbaa !9
  store i32 %6, ptr %15, align 4, !tbaa !9
  store i32 %7, ptr %16, align 4, !tbaa !9
  %17 = load ptr, ptr %9, align 8
  %18 = getelementptr inbounds nuw %"class.testing::internal::ValueArray7", ptr %17, i32 0, i32 0
  %19 = load i32, ptr %10, align 4, !tbaa !9
  store i32 %19, ptr %18, align 4, !tbaa !223
  %20 = getelementptr inbounds nuw %"class.testing::internal::ValueArray7", ptr %17, i32 0, i32 1
  %21 = load i32, ptr %11, align 4, !tbaa !9
  store i32 %21, ptr %20, align 4, !tbaa !225
  %22 = getelementptr inbounds nuw %"class.testing::internal::ValueArray7", ptr %17, i32 0, i32 2
  %23 = load i32, ptr %12, align 4, !tbaa !9
  store i32 %23, ptr %22, align 4, !tbaa !226
  %24 = getelementptr inbounds nuw %"class.testing::internal::ValueArray7", ptr %17, i32 0, i32 3
  %25 = load i32, ptr %13, align 4, !tbaa !9
  store i32 %25, ptr %24, align 4, !tbaa !227
  %26 = getelementptr inbounds nuw %"class.testing::internal::ValueArray7", ptr %17, i32 0, i32 4
  %27 = load i32, ptr %14, align 4, !tbaa !9
  store i32 %27, ptr %26, align 4, !tbaa !228
  %28 = getelementptr inbounds nuw %"class.testing::internal::ValueArray7", ptr %17, i32 0, i32 5
  %29 = load i32, ptr %15, align 4, !tbaa !9
  store i32 %29, ptr %28, align 4, !tbaa !229
  %30 = getelementptr inbounds nuw %"class.testing::internal::ValueArray7", ptr %17, i32 0, i32 6
  %31 = load i32, ptr %16, align 4, !tbaa !9
  store i32 %31, ptr %30, align 4, !tbaa !230
  ret void
}

; Function Attrs: mustprogress nounwind uwtable
define linkonce_odr hidden void @_ZN7testing8internal11ValueArray2IN2cv5Size_IiEES4_EC2ES4_S4_(ptr noundef nonnull align 4 dereferenceable(16) %0, i64 %1, i64 %2) unnamed_addr #9 comdat align 2 {
  %4 = alloca %"class.cv::Size_", align 4
  %5 = alloca %"class.cv::Size_", align 4
  %6 = alloca ptr, align 8
  store i64 %1, ptr %4, align 4
  store i64 %2, ptr %5, align 4
  store ptr %0, ptr %6, align 8, !tbaa !213
  %7 = load ptr, ptr %6, align 8
  %8 = getelementptr inbounds nuw %"class.testing::internal::ValueArray2", ptr %7, i32 0, i32 0
  call void @llvm.memcpy.p0.p0.i64(ptr align 4 %8, ptr align 4 %4, i64 8, i1 false), !tbaa.struct !73
  %9 = getelementptr inbounds nuw %"class.testing::internal::ValueArray2", ptr %7, i32 0, i32 1
  call void @llvm.memcpy.p0.p0.i64(ptr align 4 %9, ptr align 4 %5, i64 8, i1 false), !tbaa.struct !73
  ret void
}

; Function Attrs: mustprogress uwtable
define linkonce_odr hidden void @_ZN7testing7CombineINS_8internal11ValueArray2IN2cv5Size_IiEES5_EENS1_11ValueArray7IiiiiiiiEES8_NS2_IiiEENS2_IddEEEENS1_23CartesianProductHolder5IT_T0_T1_T2_T3_EERKSC_RKSD_RKSE_RKSF_RKSG_(ptr dead_on_unwind noalias writable sret(%"class.testing::internal::CartesianProductHolder5") align 8 %0, ptr noundef nonnull align 4 dereferenceable(16) %1, ptr noundef nonnull align 4 dereferenceable(28) %2, ptr noundef nonnull align 4 dereferenceable(28) %3, ptr noundef nonnull align 4 dereferenceable(8) %4, ptr noundef nonnull align 8 dereferenceable(16) %5) #6 comdat {
  %7 = alloca ptr, align 8
  %8 = alloca ptr, align 8
  %9 = alloca ptr, align 8
  %10 = alloca ptr, align 8
  %11 = alloca ptr, align 8
  %12 = alloca ptr, align 8
  store ptr %0, ptr %7, align 8
  store ptr %1, ptr %8, align 8, !tbaa !213
  store ptr %2, ptr %9, align 8, !tbaa !215
  store ptr %3, ptr %10, align 8, !tbaa !215
  store ptr %4, ptr %11, align 8, !tbaa !217
  store ptr %5, ptr %12, align 8, !tbaa !219
  %13 = load ptr, ptr %8, align 8, !tbaa !213
  %14 = load ptr, ptr %9, align 8, !tbaa !215
  %15 = load ptr, ptr %10, align 8, !tbaa !215
  %16 = load ptr, ptr %11, align 8, !tbaa !217
  %17 = load ptr, ptr %12, align 8, !tbaa !219
  call void @_ZN7testing8internal23CartesianProductHolder5INS0_11ValueArray2IN2cv5Size_IiEES5_EENS0_11ValueArray7IiiiiiiiEES8_NS2_IiiEENS2_IddEEEC2ERKS6_RKS8_SF_RKS9_RKSA_(ptr noundef nonnull align 8 dereferenceable(96) %0, ptr noundef nonnull align 4 dereferenceable(16) %13, ptr noundef nonnull align 4 dereferenceable(28) %14, ptr noundef nonnull align 4 dereferenceable(28) %15, ptr noundef nonnull align 4 dereferenceable(8) %16, ptr noundef nonnull align 8 dereferenceable(16) %17)
  ret void
}

; Function Attrs: mustprogress uwtable
define linkonce_odr hidden void @_ZN7testing6ValuesIddEENS_8internal11ValueArray2IT_T0_EES3_S4_(ptr dead_on_unwind noalias writable sret(%"class.testing::internal::ValueArray2.36") align 8 %0, double noundef %1, double noundef %2) #6 comdat {
  %4 = alloca ptr, align 8
  %5 = alloca double, align 8
  %6 = alloca double, align 8
  store ptr %0, ptr %4, align 8
  store double %1, ptr %5, align 8, !tbaa !80
  store double %2, ptr %6, align 8, !tbaa !80
  %7 = load double, ptr %5, align 8, !tbaa !80
  %8 = load double, ptr %6, align 8, !tbaa !80
  call void @_ZN7testing8internal11ValueArray2IddEC2Edd(ptr noundef nonnull align 8 dereferenceable(16) %0, double noundef %7, double noundef %8)
  ret void
}

; Function Attrs: mustprogress uwtable
define linkonce_odr hidden void @_ZN7testing6ValuesIiiEENS_8internal11ValueArray2IT_T0_EES3_S4_(ptr dead_on_unwind noalias writable sret(%"class.testing::internal::ValueArray2.35") align 4 %0, i32 noundef %1, i32 noundef %2) #6 comdat {
  %4 = alloca ptr, align 8
  %5 = alloca i32, align 4
  %6 = alloca i32, align 4
  store ptr %0, ptr %4, align 8
  store i32 %1, ptr %5, align 4, !tbaa !9
  store i32 %2, ptr %6, align 4, !tbaa !9
  %7 = load i32, ptr %5, align 4, !tbaa !9
  %8 = load i32, ptr %6, align 4, !tbaa !9
  call void @_ZN7testing8internal11ValueArray2IiiEC2Eii(ptr noundef nonnull align 4 dereferenceable(8) %0, i32 noundef %7, i32 noundef %8)
  ret void
}

; Function Attrs: mustprogress uwtable
define linkonce_odr hidden void @_ZN7testing6ValuesIiiiiiiiEENS_8internal11ValueArray7IT_T0_T1_T2_T3_T4_T5_EES3_S4_S5_S6_S7_S8_S9_(ptr dead_on_unwind noalias writable sret(%"class.testing::internal::ValueArray7") align 4 %0, i32 noundef %1, i32 noundef %2, i32 noundef %3, i32 noundef %4, i32 noundef %5, i32 noundef %6, i32 noundef %7) #6 comdat {
  %9 = alloca ptr, align 8
  %10 = alloca i32, align 4
  %11 = alloca i32, align 4
  %12 = alloca i32, align 4
  %13 = alloca i32, align 4
  %14 = alloca i32, align 4
  %15 = alloca i32, align 4
  %16 = alloca i32, align 4
  store ptr %0, ptr %9, align 8
  store i32 %1, ptr %10, align 4, !tbaa !9
  store i32 %2, ptr %11, align 4, !tbaa !9
  store i32 %3, ptr %12, align 4, !tbaa !9
  store i32 %4, ptr %13, align 4, !tbaa !9
  store i32 %5, ptr %14, align 4, !tbaa !9
  store i32 %6, ptr %15, align 4, !tbaa !9
  store i32 %7, ptr %16, align 4, !tbaa !9
  %17 = load i32, ptr %10, align 4, !tbaa !9
  %18 = load i32, ptr %11, align 4, !tbaa !9
  %19 = load i32, ptr %12, align 4, !tbaa !9
  %20 = load i32, ptr %13, align 4, !tbaa !9
  %21 = load i32, ptr %14, align 4, !tbaa !9
  %22 = load i32, ptr %15, align 4, !tbaa !9
  %23 = load i32, ptr %16, align 4, !tbaa !9
  call void @_ZN7testing8internal11ValueArray7IiiiiiiiEC2Eiiiiiii(ptr noundef nonnull align 4 dereferenceable(28) %0, i32 noundef %17, i32 noundef %18, i32 noundef %19, i32 noundef %20, i32 noundef %21, i32 noundef %22, i32 noundef %23)
  ret void
}

; Function Attrs: mustprogress uwtable
define linkonce_odr hidden void @_ZN7testing6ValuesIN2cv5Size_IiEES3_EENS_8internal11ValueArray2IT_T0_EES6_S7_(ptr dead_on_unwind noalias writable sret(%"class.testing::internal::ValueArray2") align 4 %0, i64 %1, i64 %2) #6 comdat {
  %4 = alloca ptr, align 8
  %5 = alloca %"class.cv::Size_", align 4
  %6 = alloca %"class.cv::Size_", align 4
  %7 = alloca %"class.cv::Size_", align 4
  %8 = alloca %"class.cv::Size_", align 4
  store ptr %0, ptr %4, align 8
  store i64 %1, ptr %5, align 4
  store i64 %2, ptr %6, align 4
  call void @llvm.memcpy.p0.p0.i64(ptr align 4 %7, ptr align 4 %5, i64 8, i1 false), !tbaa.struct !73
  call void @llvm.memcpy.p0.p0.i64(ptr align 4 %8, ptr align 4 %6, i64 8, i1 false), !tbaa.struct !73
  %9 = load i64, ptr %7, align 4
  %10 = load i64, ptr %8, align 4
  call void @_ZN7testing8internal11ValueArray2IN2cv5Size_IiEES4_EC2ES4_S4_(ptr noundef nonnull align 4 dereferenceable(16) %0, i64 %9, i64 %10)
  ret void
}

; Function Attrs: mustprogress uwtable
define internal void @_ZN11opencv_testL68gtest_Size_DepthSrc_DepthDst_Channels_alpha_convertTo_EvalGenerator_Ev(ptr dead_on_unwind noalias writable sret(%"class.testing::internal::ParamGenerator") align 8 %0) #6 {
  %2 = alloca ptr, align 8
  %3 = alloca %"class.testing::internal::CartesianProductHolder5", align 8
  %4 = alloca %"class.testing::internal::ValueArray2", align 4
  %5 = alloca %"class.cv::Size_", align 4
  %6 = alloca %"class.cv::Size_", align 4
  %7 = alloca %"class.testing::internal::ValueArray7", align 4
  %8 = alloca %"class.testing::internal::ValueArray7", align 4
  %9 = alloca %"class.testing::internal::ValueArray2.35", align 4
  %10 = alloca %"class.testing::internal::ValueArray2.36", align 8
  store ptr %0, ptr %2, align 8
  call void @llvm.lifetime.start.p0(i64 96, ptr %3) #3
  call void @llvm.lifetime.start.p0(i64 16, ptr %4) #3
  call void @llvm.memcpy.p0.p0.i64(ptr align 4 %5, ptr align 4 @_ZN4perfL5szVGAE, i64 8, i1 false), !tbaa.struct !73
  call void @llvm.memcpy.p0.p0.i64(ptr align 4 %6, ptr align 4 @_ZN4perfL7sz1080pE, i64 8, i1 false), !tbaa.struct !73
  %11 = load i64, ptr %5, align 4
  %12 = load i64, ptr %6, align 4
  call void @_ZN7testing6ValuesIN2cv5Size_IiEES3_EENS_8internal11ValueArray2IT_T0_EES6_S7_(ptr dead_on_unwind writable sret(%"class.testing::internal::ValueArray2") align 4 %4, i64 %11, i64 %12)
  call void @llvm.lifetime.start.p0(i64 28, ptr %7) #3
  call void @_ZN7testing6ValuesIiiiiiiiEENS_8internal11ValueArray7IT_T0_T1_T2_T3_T4_T5_EES3_S4_S5_S6_S7_S8_S9_(ptr dead_on_unwind writable sret(%"class.testing::internal::ValueArray7") align 4 %7, i32 noundef 0, i32 noundef 1, i32 noundef 2, i32 noundef 3, i32 noundef 4, i32 noundef 5, i32 noundef 6)
  call void @llvm.lifetime.start.p0(i64 28, ptr %8) #3
  call void @_ZN7testing6ValuesIiiiiiiiEENS_8internal11ValueArray7IT_T0_T1_T2_T3_T4_T5_EES3_S4_S5_S6_S7_S8_S9_(ptr dead_on_unwind writable sret(%"class.testing::internal::ValueArray7") align 4 %8, i32 noundef 0, i32 noundef 1, i32 noundef 2, i32 noundef 3, i32 noundef 4, i32 noundef 5, i32 noundef 6)
  call void @llvm.lifetime.start.p0(i64 8, ptr %9) #3
  call void @_ZN7testing6ValuesIiiEENS_8internal11ValueArray2IT_T0_EES3_S4_(ptr dead_on_unwind writable sret(%"class.testing::internal::ValueArray2.35") align 4 %9, i32 noundef 1, i32 noundef 4)
  call void @llvm.lifetime.start.p0(i64 16, ptr %10) #3
  call void @_ZN7testing6ValuesIddEENS_8internal11ValueArray2IT_T0_EES3_S4_(ptr dead_on_unwind writable sret(%"class.testing::internal::ValueArray2.36") align 8 %10, double noundef 1.000000e+00, double noundef 0x3F70101010101010)
  call void @_ZN7testing7CombineINS_8internal11ValueArray2IN2cv5Size_IiEES5_EENS1_11ValueArray7IiiiiiiiEES8_NS2_IiiEENS2_IddEEEENS1_23CartesianProductHolder5IT_T0_T1_T2_T3_EERKSC_RKSD_RKSE_RKSF_RKSG_(ptr dead_on_unwind writable sret(%"class.testing::internal::CartesianProductHolder5") align 8 %3, ptr noundef nonnull align 4 dereferenceable(16) %4, ptr noundef nonnull align 4 dereferenceable(28) %7, ptr noundef nonnull align 4 dereferenceable(28) %8, ptr noundef nonnull align 4 dereferenceable(8) %9, ptr noundef nonnull align 8 dereferenceable(16) %10)
  call void @_ZNK7testing8internal23CartesianProductHolder5INS0_11ValueArray2IN2cv5Size_IiEES5_EENS0_11ValueArray7IiiiiiiiEES8_NS2_IiiEENS2_IddEEEcvNS0_14ParamGeneratorISt5tupleIJT_T0_T1_T2_T3_EEEEIS5_N4perf7MatTypeESN_idEEv(ptr dead_on_unwind writable sret(%"class.testing::internal::ParamGenerator") align 8 %0, ptr noundef nonnull align 8 dereferenceable(96) %3)
  call void @llvm.lifetime.end.p0(i64 16, ptr %10) #3
  call void @llvm.lifetime.end.p0(i64 8, ptr %9) #3
  call void @llvm.lifetime.end.p0(i64 28, ptr %8) #3
  call void @llvm.lifetime.end.p0(i64 28, ptr %7) #3
  call void @llvm.lifetime.end.p0(i64 16, ptr %4) #3
  call void @llvm.lifetime.end.p0(i64 96, ptr %3) #3
  ret void
}