; Function Attrs: mustprogress uwtable
define internal void @_ZN11opencv_testL68gtest_Size_DepthSrc_DepthDst_Channels_alpha_convertTo_EvalGenerator_Ev(ptr dead_on_unwind noalias writable sret(%"class.testing::internal::ParamGenerator") align 8 %0) #4 {
  %2 = alloca %"class.testing::internal::CartesianProductHolder5", align 8
  call void @llvm.lifetime.start.p0(i64 96, ptr nonnull %2) #30
  %.sroa.01.0.copyload = load i64, ptr @_ZN4perfL5szVGAE, align 8
  %.sroa.0.0.copyload = load i64, ptr @_ZN4perfL7sz1080pE, align 8
  store i64 %.sroa.01.0.copyload, ptr %2, align 8, !alias.scope !70
  %3 = getelementptr inbounds nuw i8, ptr %2, i64 8
  store i64 %.sroa.0.0.copyload, ptr %3, align 8, !alias.scope !70
  %4 = getelementptr inbounds nuw i8, ptr %2, i64 16
  store i32 0, ptr %4, align 8, !tbaa !73, !alias.scope !70
  %5 = getelementptr inbounds nuw i8, ptr %2, i64 20
  store i32 1, ptr %5, align 4, !tbaa !75, !alias.scope !70
  %6 = getelementptr inbounds nuw i8, ptr %2, i64 24
  store i32 2, ptr %6, align 8, !tbaa !76, !alias.scope !70
  %7 = getelementptr inbounds nuw i8, ptr %2, i64 28
  store i32 3, ptr %7, align 4, !tbaa !77, !alias.scope !70
  %8 = getelementptr inbounds nuw i8, ptr %2, i64 32
  store i32 4, ptr %8, align 8, !tbaa !78, !alias.scope !70
  %9 = getelementptr inbounds nuw i8, ptr %2, i64 36
  store i32 5, ptr %9, align 4, !tbaa !79, !alias.scope !70
  %10 = getelementptr inbounds nuw i8, ptr %2, i64 40
  store i32 6, ptr %10, align 8, !tbaa !80, !alias.scope !70
  %11 = getelementptr inbounds nuw i8, ptr %2, i64 44
  store i32 0, ptr %11, align 4, !tbaa !73, !alias.scope !70
  %12 = getelementptr inbounds nuw i8, ptr %2, i64 48
  store i32 1, ptr %12, align 8, !tbaa !75, !alias.scope !70
  %13 = getelementptr inbounds nuw i8, ptr %2, i64 52
  store i32 2, ptr %13, align 4, !tbaa !76, !alias.scope !70
  %14 = getelementptr inbounds nuw i8, ptr %2, i64 56
  store i32 3, ptr %14, align 8, !tbaa !77, !alias.scope !70
  %15 = getelementptr inbounds nuw i8, ptr %2, i64 60
  store i32 4, ptr %15, align 4, !tbaa !78, !alias.scope !70
  %16 = getelementptr inbounds nuw i8, ptr %2, i64 64
  store i32 5, ptr %16, align 8, !tbaa !79, !alias.scope !70
  %17 = getelementptr inbounds nuw i8, ptr %2, i64 68
  store i32 6, ptr %17, align 4, !tbaa !80, !alias.scope !70
  %18 = getelementptr inbounds nuw i8, ptr %2, i64 72
  store i32 1, ptr %18, align 8, !tbaa !81, !alias.scope !70
  %19 = getelementptr inbounds nuw i8, ptr %2, i64 76
  store i32 4, ptr %19, align 4, !tbaa !83, !alias.scope !70
  %20 = getelementptr inbounds nuw i8, ptr %2, i64 80
  store double 1.000000e+00, ptr %20, align 8, !tbaa !84, !alias.scope !70
  %21 = getelementptr inbounds nuw i8, ptr %2, i64 88
  store double 0x3F70101010101010, ptr %21, align 8, !tbaa !86, !alias.scope !70
  call void @_ZNK7testing8internal23CartesianProductHolder5INS0_11ValueArray2IN2cv5Size_IiEES5_EENS0_11ValueArray7IiiiiiiiEES8_NS2_IiiEENS2_IddEEEcvNS0_14ParamGeneratorISt5tupleIJT_T0_T1_T2_T3_EEEEIS5_N4perf7MatTypeESN_idEEv(ptr dead_on_unwind writable sret(%"class.testing::internal::ParamGenerator") align 8 %0, ptr noundef nonnull align 8 dereferenceable(96) %2)
  call void @llvm.lifetime.end.p0(i64 96, ptr nonnull %2) #30
  ret void
}